; Function Attrs: mustprogress nofree norecurse nosync nounwind willreturn memory(readwrite, inaccessiblemem: none) uwtable
define void @_ZN3gmx26TrajectoryAnalysisSettings7setFlagEmb(ptr nocapture noundef nonnull readonly align 8 dereferenceable(8) %0, i64 noundef %1, i1 noundef zeroext %2) local_unnamed_addr #8 align 2 {
  br i1 %2, label %4, label %9

4:                                                ; preds = %3
  %5 = load ptr, ptr %0, align 8
  %6 = getelementptr inbounds i8, ptr %5, i64 24
  %7 = load i64, ptr %6, align 8
  %8 = or i64 %7, %1
  store i64 %8, ptr %6, align 8
  br label %15

9:                                                ; preds = %3
  %10 = xor i64 %1, -1
  %11 = load ptr, ptr %0, align 8
  %12 = getelementptr inbounds i8, ptr %11, i64 24
  %13 = load i64, ptr %12, align 8
  %14 = and i64 %13, %10
  store i64 %14, ptr %12, align 8
  br label %15

15:                                               ; preds = %9, %4
  ret void
}